target datalayout = "e-m:e-p270:32:32-p271:32:32-p272:64:64-i64:64-i128:128-f80:128-n8:16:32:64-S128"
target triple = "x86_64-pc-linux-gnu"

%struct.AVTreeNode = type { [2 x ptr], ptr, i32 }

; Function Attrs: nounwind uwtable
define void @av_tree_destroy(ptr noundef %0) #0 {
  %2 = alloca ptr, align 8
  store ptr %0, ptr %2, align 8, !tbaa !4
  %3 = load ptr, ptr %2, align 8, !tbaa !4
  %4 = icmp ne ptr %3, null
  br i1 %4, label %5, label %15

5:                                                ; preds = %1
  %6 = load ptr, ptr %2, align 8, !tbaa !4
  %7 = getelementptr inbounds nuw %struct.AVTreeNode, ptr %6, i32 0, i32 0
  %8 = getelementptr inbounds [2 x ptr], ptr %7, i64 0, i64 0
  %9 = load ptr, ptr %8, align 8, !tbaa !4
  call void @av_tree_destroy(ptr noundef %9)
  %10 = load ptr, ptr %2, align 8, !tbaa !4
  %11 = getelementptr inbounds nuw %struct.AVTreeNode, ptr %10, i32 0, i32 0
  %12 = getelementptr inbounds [2 x ptr], ptr %11, i64 0, i64 1
  %13 = load ptr, ptr %12, align 8, !tbaa !4
  call void @av_tree_destroy(ptr noundef %13)
  %14 = load ptr, ptr %2, align 8, !tbaa !4
  call void @av_free(ptr noundef %14)
  br label %15

15:                                               ; preds = %5, %1
  ret void
}