; Function Attrs: nounwind uwtable
define void @av_tree_destroy(ptr noundef %0) local_unnamed_addr #0 {
  %.not = icmp eq ptr %0, null
  br i1 %.not, label %common.ret4, label %2

common.ret4:                                      ; preds = %1, %2
  ret void

2:                                                ; preds = %1
  %3 = load ptr, ptr %0, align 8, !tbaa !10
  tail call void @av_tree_destroy(ptr noundef %3)
  %4 = getelementptr inbounds nuw i8, ptr %0, i64 8
  %5 = load ptr, ptr %4, align 8, !tbaa !10
  tail call void @av_tree_destroy(ptr noundef %5)
  tail call void @av_free(ptr noundef nonnull %0) #3
  br label %common.ret4
}